; Function Attrs: mustprogress uwtable
define void @_ZN6duckdb18ParquetBloomFilterC2ENS_10unique_ptrINS_16ResizeableBufferESt14default_deleteIS2_ELb1EEE(ptr noundef nonnull align 8 dereferenceable(16) initializes((0, 8)) %0, ptr noundef captures(none) %1) unnamed_addr #3 align 2 personality ptr @__gxx_personality_v0 {
  store ptr null, ptr %0, align 8, !tbaa !205
  %3 = load ptr, ptr %1, align 8, !tbaa !158
  store ptr null, ptr %1, align 8, !tbaa !158
  %4 = load ptr, ptr %0, align 8, !tbaa !158
  store ptr %3, ptr %0, align 8, !tbaa !158
  %.not.i.i.i.i.i = icmp eq ptr %4, null
  br i1 %.not.i.i.i.i.i, label %_ZN6duckdb10unique_ptrINS_16ResizeableBufferESt14default_deleteIS1_ELb1EEaSEOS4_.exit, label %_ZNKSt14default_deleteIN6duckdb16ResizeableBufferEEclEPS1_.exit.i.i.i.i.i

_ZNKSt14default_deleteIN6duckdb16ResizeableBufferEEclEPS1_.exit.i.i.i.i.i: ; preds = %2
  %5 = getelementptr inbounds nuw i8, ptr %4, i64 16
  tail call void @_ZN6duckdb13AllocatedDataD1Ev(ptr noundef nonnull align 8 dereferenceable(24) %5) #25
  tail call void @_ZdlPv(ptr noundef nonnull %4) #26
  br label %_ZN6duckdb10unique_ptrINS_16ResizeableBufferESt14default_deleteIS1_ELb1EEaSEOS4_.exit

_ZN6duckdb10unique_ptrINS_16ResizeableBufferESt14default_deleteIS1_ELb1EEaSEOS4_.exit: ; preds = %2, %_ZNKSt14default_deleteIN6duckdb16ResizeableBufferEEclEPS1_.exit.i.i.i.i.i
  %6 = invoke noundef ptr @_ZNK6duckdb10unique_ptrINS_16ResizeableBufferESt14default_deleteIS1_ELb1EEptEv(ptr noundef nonnull align 8 dereferenceable(8) %0)
          to label %7 unwind label %12

7:                                                ; preds = %_ZN6duckdb10unique_ptrINS_16ResizeableBufferESt14default_deleteIS1_ELb1EEaSEOS4_.exit
  %8 = getelementptr inbounds nuw i8, ptr %6, i64 8
  %9 = load i64, ptr %8, align 8, !tbaa !209
  %10 = lshr i64 %9, 5
  %11 = getelementptr inbounds nuw i8, ptr %0, i64 8
  store i64 %10, ptr %11, align 8, !tbaa !194
  ret void

12:                                               ; preds = %_ZN6duckdb10unique_ptrINS_16ResizeableBufferESt14default_deleteIS1_ELb1EEaSEOS4_.exit
  %13 = landingpad { ptr, i32 }
          cleanup
  tail call void @_ZNSt10unique_ptrIN6duckdb16ResizeableBufferESt14default_deleteIS1_EED2Ev(ptr noundef nonnull align 8 dereferenceable(8) %0) #25
  resume { ptr, i32 } %13
}